; Function Attrs: nounwind uwtable
define range(i32 -1, 1) i32 @H5S_write(ptr noundef %0, ptr noundef %1, i32 noundef %2, ptr noundef %3) local_unnamed_addr #0 {
  %5 = load i8, ptr @H5S_init_g, align 1, !tbaa !3, !range !7, !noundef !8
  %6 = trunc nuw i8 %5 to i1
  %7 = load i8, ptr @H5_libterm_g, align 1, !range !7
  %8 = trunc nuw i8 %7 to i1
  %9 = select i1 %6, i1 true, i1 %8
  br i1 %9, label %17, label %10, !prof !9

10:                                               ; preds = %4
  store i8 1, ptr @H5S_init_g, align 1, !tbaa !3
  %11 = tail call i32 @H5S__init_package()
  %12 = icmp slt i32 %11, 0
  br i1 %12, label %13, label %._crit_edge

._crit_edge:                                      ; preds = %10
  %.pre = load i8, ptr @H5S_init_g, align 1, !tbaa !3, !range !7
  %.pre6 = load i8, ptr @H5_libterm_g, align 1, !range !7
  %.pre7 = trunc nuw i8 %.pre to i1
  %.pre8 = trunc nuw i8 %.pre6 to i1
  br label %17

13:                                               ; preds = %10
  store i8 0, ptr @H5S_init_g, align 1, !tbaa !3
  %14 = load i64, ptr @H5E_FUNC_g, align 8, !tbaa !10
  %15 = load i64, ptr @H5E_CANTINIT_g, align 8, !tbaa !10
  %16 = tail call i32 (ptr, ptr, i32, i64, i64, ptr, ...) @H5E_printf_stack(ptr noundef nonnull @.str.3, ptr noundef nonnull @__func__.H5S_write, i32 noundef 1031, i64 noundef %14, i64 noundef %15, ptr noundef nonnull @.str.4) #10
  br label %27

17:                                               ; preds = %._crit_edge, %4
  %.pre-phi9 = phi i1 [ %.pre8, %._crit_edge ], [ %8, %4 ]
  %.pre-phi = phi i1 [ %.pre7, %._crit_edge ], [ %6, %4 ]
  %18 = xor i1 %.pre-phi9, true
  %19 = select i1 %.pre-phi, i1 true, i1 %18
  br i1 %19, label %20, label %27, !prof !9

20:                                               ; preds = %17
  %21 = tail call i32 @H5O_msg_write_oh(ptr noundef %0, ptr noundef %1, i32 noundef 1, i32 noundef 0, i32 noundef %2, ptr noundef %3) #10
  %22 = icmp slt i32 %21, 0
  br i1 %22, label %23, label %27

23:                                               ; preds = %20
  %24 = load i64, ptr @H5E_DATASPACE_g, align 8, !tbaa !10
  %25 = load i64, ptr @H5E_CANTINIT_g, align 8, !tbaa !10
  %26 = tail call i32 (ptr, ptr, i32, i64, i64, ptr, ...) @H5E_printf_stack(ptr noundef nonnull @.str.3, ptr noundef nonnull @__func__.H5S_write, i32 noundef 1040, i64 noundef %24, i64 noundef %25, ptr noundef nonnull @.str.27) #10
  br label %27

27:                                               ; preds = %13, %23, %20, %17
  %.0 = phi i32 [ -1, %13 ], [ -1, %23 ], [ 0, %20 ], [ 0, %17 ]
  ret i32 %.0
}